; Function Attrs: mustprogress uwtable
define hidden noundef zeroext i1 @_ZNK3ue220ComponentAlternation22checkEmbeddedEndAnchorEb(ptr nocapture noundef nonnull readonly align 8 dereferenceable(40) %this, i1 noundef zeroext %at_end) unnamed_addr #0 align 2 {
entry:
  %children = getelementptr inbounds i8, ptr %this, i64 16
  %0 = load ptr, ptr %children, align 8
  %_M_finish.i = getelementptr inbounds i8, ptr %this, i64 24
  %1 = load ptr, ptr %_M_finish.i, align 8
  %cmp.i.not7 = icmp eq ptr %0, %1
  br i1 %cmp.i.not7, label %for.end, label %for.body

for.body:                                         ; preds = %entry, %for.body
  %rv.0.in9 = phi i1 [ %and4, %for.body ], [ %at_end, %entry ]
  %__begin1.sroa.0.08 = phi ptr [ %incdec.ptr.i, %for.body ], [ %0, %entry ]
  %2 = load ptr, ptr %__begin1.sroa.0.08, align 8
  %vtable = load ptr, ptr %2, align 8
  %vfn = getelementptr inbounds i8, ptr %vtable, i64 112
  %3 = load ptr, ptr %vfn, align 8
  %call9 = tail call noundef zeroext i1 %3(ptr noundef nonnull align 8 dereferenceable(16) %2, i1 noundef zeroext %at_end)
  %and4 = and i1 %rv.0.in9, %call9
  %incdec.ptr.i = getelementptr inbounds i8, ptr %__begin1.sroa.0.08, i64 8
  %cmp.i.not = icmp eq ptr %incdec.ptr.i, %1
  br i1 %cmp.i.not, label %for.end, label %for.body

for.end:                                          ; preds = %for.body, %entry
  %rv.0.in.lcssa = phi i1 [ %at_end, %entry ], [ %and4, %for.body ]
  ret i1 %rv.0.in.lcssa
}